target datalayout = "e-m:e-p270:32:32-p271:32:32-p272:64:64-i64:64-i128:128-f80:128-n8:16:32:64-S128"
target triple = "x86_64-pc-linux-gnu"

%struct._zval_struct = type { %union._zend_value, %union.anon, %union.anon.2 }
%union._zend_value = type { i64 }
%union.anon = type { i32 }
%union.anon.2 = type { i32 }
%struct._zend_array = type { %struct._zend_refcounted_h, %union.anon.5, i32, %union.anon.7, i32, i32, i32, i32, i64, ptr }
%struct._zend_refcounted_h = type { i32, %union.anon.3 }
%union.anon.3 = type { i32 }
%union.anon.5 = type { i32 }
%union.anon.7 = type { ptr }
%struct._zend_object = type { %struct._zend_refcounted_h, i32, ptr, ptr, ptr, [1 x %struct._zval_struct] }
%struct._zend_class_entry = type { i8, ptr, %union.anon.4, i32, i32, i32, i32, ptr, ptr, ptr, %struct._zend_array, %struct._zend_array, %struct._zend_array, ptr, ptr, ptr, ptr, ptr, ptr, ptr, ptr, ptr, ptr, ptr, ptr, ptr, ptr, ptr, ptr, ptr, ptr, ptr, %union.anon.8, ptr, ptr, ptr, ptr, i32, i32, %union.anon.9, ptr, ptr, ptr, ptr, i32, ptr, ptr, %union.anon.10 }
%union.anon.4 = type { ptr }
%union.anon.8 = type { ptr }
%union.anon.9 = type { ptr }
%union.anon.10 = type { %struct.anon.11 }
%struct.anon.11 = type { ptr, i32, i32 }
%struct._zend_string = type { %struct._zend_refcounted_h, i64, i64, [1 x i8] }

@.str = private unnamed_addr constant [47 x i8] c"Couldn't find implementation for method %s::%s\00", align 1
@.str.1 = private unnamed_addr constant [45 x i8] c"Couldn't find implementation for function %s\00", align 1

; Function Attrs: nounwind uwtable
define ptr @zend_call_method(ptr noundef %0, ptr noundef %1, ptr noundef %2, ptr noundef %3, i64 noundef %4, ptr noundef %5, i32 noundef %6, ptr noundef %7, ptr noundef %8) #0 {
  %10 = alloca ptr, align 8
  %11 = alloca ptr, align 8
  %12 = alloca ptr, align 8
  %13 = alloca ptr, align 8
  %14 = alloca i64, align 8
  %15 = alloca ptr, align 8
  %16 = alloca i32, align 4
  %17 = alloca ptr, align 8
  %18 = alloca ptr, align 8
  %19 = alloca ptr, align 8
  %20 = alloca ptr, align 8
  %21 = alloca [2 x %struct._zval_struct], align 16
  %22 = alloca ptr, align 8
  %23 = alloca ptr, align 8
  %24 = alloca ptr, align 8
  %25 = alloca i32, align 4
  %26 = alloca ptr, align 8
  %27 = alloca ptr, align 8
  %28 = alloca ptr, align 8
  %29 = alloca i32, align 4
  store ptr %0, ptr %10, align 8
  store ptr %1, ptr %11, align 8
  store ptr %2, ptr %12, align 8
  store ptr %3, ptr %13, align 8
  store i64 %4, ptr %14, align 8
  store ptr %5, ptr %15, align 8
  store i32 %6, ptr %16, align 4
  store ptr %7, ptr %17, align 8
  store ptr %8, ptr %18, align 8
  %30 = load i32, ptr %16, align 4
  %31 = icmp ugt i32 %30, 0
  br i1 %31, label %32, label %51

32:                                               ; preds = %9
  br label %33

33:                                               ; preds = %32
  %34 = getelementptr inbounds [2 x %struct._zval_struct], ptr %21, i64 0, i64 0
  store ptr %34, ptr %22, align 8
  %35 = load ptr, ptr %17, align 8
  store ptr %35, ptr %23, align 8
  %36 = load ptr, ptr %23, align 8
  %37 = getelementptr inbounds %struct._zval_struct, ptr %36, i32 0, i32 0
  %38 = load ptr, ptr %37, align 8
  store ptr %38, ptr %24, align 8
  %39 = load ptr, ptr %23, align 8
  %40 = getelementptr inbounds %struct._zval_struct, ptr %39, i32 0, i32 1
  %41 = load i32, ptr %40, align 8
  store i32 %41, ptr %25, align 4
  br label %42

42:                                               ; preds = %33
  %43 = load ptr, ptr %24, align 8
  %44 = load ptr, ptr %22, align 8
  %45 = getelementptr inbounds %struct._zval_struct, ptr %44, i32 0, i32 0
  store ptr %43, ptr %45, align 8
  %46 = load i32, ptr %25, align 4
  %47 = load ptr, ptr %22, align 8
  %48 = getelementptr inbounds %struct._zval_struct, ptr %47, i32 0, i32 1
  store i32 %46, ptr %48, align 8
  br label %49

49:                                               ; preds = %42
  br label %50

50:                                               ; preds = %49
  br label %51

51:                                               ; preds = %50, %9
  %52 = load i32, ptr %16, align 4
  %53 = icmp ugt i32 %52, 1
  br i1 %53, label %54, label %73

54:                                               ; preds = %51
  br label %55

55:                                               ; preds = %54
  %56 = getelementptr inbounds [2 x %struct._zval_struct], ptr %21, i64 0, i64 1
  store ptr %56, ptr %26, align 8
  %57 = load ptr, ptr %18, align 8
  store ptr %57, ptr %27, align 8
  %58 = load ptr, ptr %27, align 8
  %59 = getelementptr inbounds %struct._zval_struct, ptr %58, i32 0, i32 0
  %60 = load ptr, ptr %59, align 8
  store ptr %60, ptr %28, align 8
  %61 = load ptr, ptr %27, align 8
  %62 = getelementptr inbounds %struct._zval_struct, ptr %61, i32 0, i32 1
  %63 = load i32, ptr %62, align 8
  store i32 %63, ptr %29, align 4
  br label %64

64:                                               ; preds = %55
  %65 = load ptr, ptr %28, align 8
  %66 = load ptr, ptr %26, align 8
  %67 = getelementptr inbounds %struct._zval_struct, ptr %66, i32 0, i32 0
  store ptr %65, ptr %67, align 8
  %68 = load i32, ptr %29, align 4
  %69 = load ptr, ptr %26, align 8
  %70 = getelementptr inbounds %struct._zval_struct, ptr %69, i32 0, i32 1
  store i32 %68, ptr %70, align 8
  br label %71

71:                                               ; preds = %64
  br label %72

72:                                               ; preds = %71
  br label %73

73:                                               ; preds = %72, %51
  %74 = load ptr, ptr %11, align 8
  %75 = icmp ne ptr %74, null
  br i1 %75, label %86, label %76

76:                                               ; preds = %73
  %77 = load ptr, ptr %10, align 8
  %78 = icmp ne ptr %77, null
  br i1 %78, label %79, label %83

79:                                               ; preds = %76
  %80 = load ptr, ptr %10, align 8
  %81 = getelementptr inbounds %struct._zend_object, ptr %80, i32 0, i32 2
  %82 = load ptr, ptr %81, align 8
  br label %84

83:                                               ; preds = %76
  br label %84

84:                                               ; preds = %83, %79
  %85 = phi ptr [ %82, %79 ], [ null, %83 ]
  store ptr %85, ptr %11, align 8
  br label %86

86:                                               ; preds = %84, %73
  %87 = load ptr, ptr %12, align 8
  %88 = icmp ne ptr %87, null
  br i1 %88, label %89, label %93

89:                                               ; preds = %86
  %90 = load ptr, ptr %12, align 8
  %91 = load ptr, ptr %90, align 8
  %92 = icmp ne ptr %91, null
  br i1 %92, label %143, label %93

93:                                               ; preds = %89, %86
  %94 = load ptr, ptr %11, align 8
  %95 = icmp ne ptr %94, null
  %96 = xor i1 %95, true
  %97 = xor i1 %96, true
  %98 = zext i1 %97 to i32
  %99 = sext i32 %98 to i64
  %100 = icmp ne i64 %99, 0
  br i1 %100, label %101, label %122

101:                                              ; preds = %93
  %102 = load ptr, ptr %11, align 8
  %103 = getelementptr inbounds %struct._zend_class_entry, ptr %102, i32 0, i32 10
  %104 = load ptr, ptr %13, align 8
  %105 = load i64, ptr %14, align 8
  %106 = call ptr @zend_hash_str_find_ptr_lc(ptr noundef %103, ptr noundef %104, i64 noundef %105)
  store ptr %106, ptr %19, align 8
  %107 = load ptr, ptr %19, align 8
  %108 = icmp eq ptr %107, null
  %109 = xor i1 %108, true
  %110 = xor i1 %109, true
  %111 = zext i1 %110 to i32
  %112 = sext i32 %111 to i64
  %113 = icmp ne i64 %112, 0
  br i1 %113, label %114, label %121

114:                                              ; preds = %101
  %115 = load ptr, ptr %11, align 8
  %116 = getelementptr inbounds %struct._zend_class_entry, ptr %115, i32 0, i32 1
  %117 = load ptr, ptr %116, align 8
  %118 = getelementptr inbounds %struct._zend_string, ptr %117, i32 0, i32 3
  %119 = getelementptr inbounds [1 x i8], ptr %118, i64 0, i64 0
  %120 = load ptr, ptr %13, align 8
  call void (i32, ptr, ...) @zend_error_noreturn(i32 noundef 16, ptr noundef @.str, ptr noundef %119, ptr noundef %120) #9
  unreachable

121:                                              ; preds = %101
  br label %136

122:                                              ; preds = %93
  %123 = load ptr, ptr %13, align 8
  %124 = load i64, ptr %14, align 8
  %125 = call ptr @zend_fetch_function_str(ptr noundef %123, i64 noundef %124)
  store ptr %125, ptr %19, align 8
  %126 = load ptr, ptr %19, align 8
  %127 = icmp eq ptr %126, null
  %128 = xor i1 %127, true
  %129 = xor i1 %128, true
  %130 = zext i1 %129 to i32
  %131 = sext i32 %130 to i64
  %132 = icmp ne i64 %131, 0
  br i1 %132, label %133, label %135

133:                                              ; preds = %122
  %134 = load ptr, ptr %13, align 8
  call void (i32, ptr, ...) @zend_error_noreturn(i32 noundef 16, ptr noundef @.str.1, ptr noundef %134) #9
  unreachable

135:                                              ; preds = %122
  br label %136

136:                                              ; preds = %135, %121
  %137 = load ptr, ptr %12, align 8
  %138 = icmp ne ptr %137, null
  br i1 %138, label %139, label %142

139:                                              ; preds = %136
  %140 = load ptr, ptr %19, align 8
  %141 = load ptr, ptr %12, align 8
  store ptr %140, ptr %141, align 8
  br label %142

142:                                              ; preds = %139, %136
  br label %146

143:                                              ; preds = %89
  %144 = load ptr, ptr %12, align 8
  %145 = load ptr, ptr %144, align 8
  store ptr %145, ptr %19, align 8
  br label %146

146:                                              ; preds = %143, %142
  %147 = load ptr, ptr %10, align 8
  %148 = icmp ne ptr %147, null
  br i1 %148, label %149, label %153

149:                                              ; preds = %146
  %150 = load ptr, ptr %10, align 8
  %151 = getelementptr inbounds %struct._zend_object, ptr %150, i32 0, i32 2
  %152 = load ptr, ptr %151, align 8
  store ptr %152, ptr %20, align 8
  br label %155

153:                                              ; preds = %146
  %154 = load ptr, ptr %11, align 8
  store ptr %154, ptr %20, align 8
  br label %155

155:                                              ; preds = %153, %149
  %156 = load ptr, ptr %19, align 8
  %157 = load ptr, ptr %10, align 8
  %158 = load ptr, ptr %20, align 8
  %159 = load ptr, ptr %15, align 8
  %160 = load i32, ptr %16, align 4
  %161 = getelementptr inbounds [2 x %struct._zval_struct], ptr %21, i64 0, i64 0
  call void @zend_call_known_function(ptr noundef %156, ptr noundef %157, ptr noundef %158, ptr noundef %159, i32 noundef %160, ptr noundef %161, ptr noundef null)
  %162 = load ptr, ptr %15, align 8
  ret ptr %162
}