; Function Attrs: nounwind uwtable
define noundef ptr @zend_call_method(ptr noundef %0, ptr noundef %1, ptr noundef %2, ptr noundef %3, i64 noundef %4, ptr noundef returned %5, i32 noundef %6, ptr nocapture noundef readonly %7, ptr nocapture noundef readonly %8) local_unnamed_addr #0 {
  %10 = alloca [2 x %struct._zval_struct], align 16
  %.not = icmp eq i32 %6, 0
  br i1 %.not, label %.thread, label %11

11:                                               ; preds = %9
  %12 = load ptr, ptr %7, align 8
  %13 = getelementptr inbounds i8, ptr %7, i64 8
  %14 = load i32, ptr %13, align 8
  store ptr %12, ptr %10, align 16
  %15 = getelementptr inbounds i8, ptr %10, i64 8
  store i32 %14, ptr %15, align 8
  %.not60 = icmp eq i32 %6, 1
  br i1 %.not60, label %.thread, label %16

16:                                               ; preds = %11
  %17 = getelementptr inbounds i8, ptr %10, i64 16
  %18 = load ptr, ptr %8, align 8
  %19 = getelementptr inbounds i8, ptr %8, i64 8
  %20 = load i32, ptr %19, align 8
  store ptr %18, ptr %17, align 16
  %21 = getelementptr inbounds i8, ptr %10, i64 24
  store i32 %20, ptr %21, align 8
  br label %.thread

.thread:                                          ; preds = %9, %16, %11
  %.not54 = icmp eq ptr %1, null
  br i1 %.not54, label %22, label %26

22:                                               ; preds = %.thread
  %.not55 = icmp eq ptr %0, null
  br i1 %.not55, label %26, label %23

23:                                               ; preds = %22
  %24 = getelementptr inbounds i8, ptr %0, i64 16
  %25 = load ptr, ptr %24, align 8
  br label %26

26:                                               ; preds = %23, %22, %.thread
  %.0 = phi ptr [ %1, %.thread ], [ %25, %23 ], [ null, %22 ]
  %.not56 = icmp eq ptr %2, null
  br i1 %.not56, label %29, label %27

27:                                               ; preds = %26
  %28 = load ptr, ptr %2, align 8
  %.not57 = icmp eq ptr %28, null
  br i1 %.not57, label %29, label %44

29:                                               ; preds = %27, %26
  %.not58 = icmp eq ptr %.0, null
  br i1 %.not58, label %38, label %30

30:                                               ; preds = %29
  %31 = getelementptr inbounds i8, ptr %.0, i64 64
  %32 = tail call ptr @zend_hash_str_find_ptr_lc(ptr noundef nonnull %31, ptr noundef %3, i64 noundef %4) #9
  %33 = icmp eq ptr %32, null
  br i1 %33, label %34, label %42

34:                                               ; preds = %30
  %35 = getelementptr inbounds i8, ptr %.0, i64 8
  %36 = load ptr, ptr %35, align 8
  %37 = getelementptr inbounds i8, ptr %36, i64 24
  tail call void (i32, ptr, ...) @zend_error_noreturn(i32 noundef 16, ptr noundef nonnull @.str, ptr noundef nonnull %37, ptr noundef %3) #10
  unreachable

38:                                               ; preds = %29
  %39 = tail call ptr @zend_fetch_function_str(ptr noundef %3, i64 noundef %4) #9
  %40 = icmp eq ptr %39, null
  br i1 %40, label %41, label %42

41:                                               ; preds = %38
  tail call void (i32, ptr, ...) @zend_error_noreturn(i32 noundef 16, ptr noundef nonnull @.str.1, ptr noundef %3) #10
  unreachable

42:                                               ; preds = %38, %30
  %.044 = phi ptr [ %32, %30 ], [ %39, %38 ]
  br i1 %.not56, label %44, label %43

43:                                               ; preds = %42
  store ptr %.044, ptr %2, align 8
  br label %44

44:                                               ; preds = %27, %42, %43
  %.1 = phi ptr [ %.044, %43 ], [ %.044, %42 ], [ %28, %27 ]
  %.not59 = icmp eq ptr %0, null
  br i1 %.not59, label %48, label %45

45:                                               ; preds = %44
  %46 = getelementptr inbounds i8, ptr %0, i64 16
  %47 = load ptr, ptr %46, align 8
  br label %48

48:                                               ; preds = %44, %45
  %.045 = phi ptr [ %47, %45 ], [ %.0, %44 ]
  call void @zend_call_known_function(ptr noundef nonnull %.1, ptr noundef %0, ptr noundef %.045, ptr noundef %5, i32 noundef %6, ptr noundef nonnull %10, ptr noundef null) #9
  ret ptr %5
}